; ModuleID = 'bench/libcxx/original/stdlib_typeinfo.ll'
source_filename = "bench/libcxx/original/stdlib_typeinfo.ll"
target datalayout = "e-m:e-p270:32:32-p271:32:32-p272:64:64-i64:64-i128:128-f80:128-n8:16:32:64-S128"
target triple = "x86_64-pc-linux-gnu"

@_ZTVSt8bad_cast = dso_local unnamed_addr constant { [5 x ptr] } { [5 x ptr] [ptr null, ptr @_ZTISt8bad_cast, ptr @_ZNSt8bad_castD2Ev, ptr @_ZNSt8bad_castD0Ev, ptr @_ZNKSt8bad_cast4whatEv] }, align 8
@.str = private unnamed_addr constant [14 x i8] c"std::bad_cast\00", align 1
@_ZTVSt10bad_typeid = dso_local unnamed_addr constant { [5 x ptr] } { [5 x ptr] [ptr null, ptr @_ZTISt10bad_typeid, ptr @_ZNSt10bad_typeidD2Ev, ptr @_ZNSt10bad_typeidD0Ev, ptr @_ZNKSt10bad_typeid4whatEv] }, align 8
@.str.1 = private unnamed_addr constant [16 x i8] c"std::bad_typeid\00", align 1
@_ZTVSt9type_info = dso_local unnamed_addr constant { [4 x ptr] } { [4 x ptr] [ptr null, ptr @_ZTISt9type_info, ptr @_ZNSt9type_infoD2Ev, ptr @_ZNSt9type_infoD0Ev] }, align 8
@_ZTISt9type_info = dso_local constant { ptr, ptr } { ptr getelementptr inbounds (ptr, ptr @_ZTVN10__cxxabiv117__class_type_infoE, i64 2), ptr @_ZTSSt9type_info }, align 8
@_ZTVN10__cxxabiv117__class_type_infoE = external global [0 x ptr]
@_ZTSSt9type_info = dso_local constant [13 x i8] c"St9type_info\00", align 1
@_ZTISt8bad_cast = dso_local constant { ptr, ptr, ptr } { ptr getelementptr inbounds (ptr, ptr @_ZTVN10__cxxabiv120__si_class_type_infoE, i64 2), ptr @_ZTSSt8bad_cast, ptr @_ZTISt9exception }, align 8
@_ZTVN10__cxxabiv120__si_class_type_infoE = external global [0 x ptr]
@_ZTSSt8bad_cast = dso_local constant [12 x i8] c"St8bad_cast\00", align 1
@_ZTISt9exception = external constant ptr
@_ZTISt10bad_typeid = dso_local constant { ptr, ptr, ptr } { ptr getelementptr inbounds (ptr, ptr @_ZTVN10__cxxabiv120__si_class_type_infoE, i64 2), ptr @_ZTSSt10bad_typeid, ptr @_ZTISt9exception }, align 8
@_ZTSSt10bad_typeid = dso_local constant [15 x i8] c"St10bad_typeid\00", align 1

@_ZNSt9type_infoD1Ev = dso_local unnamed_addr alias void (ptr), ptr @_ZNSt9type_infoD2Ev
@_ZNSt8bad_castC1Ev = dso_local unnamed_addr alias void (ptr), ptr @_ZNSt8bad_castC2Ev
@_ZNSt8bad_castD1Ev = dso_local unnamed_addr alias void (ptr), ptr @_ZNSt8bad_castD2Ev
@_ZNSt10bad_typeidC1Ev = dso_local unnamed_addr alias void (ptr), ptr @_ZNSt10bad_typeidC2Ev
@_ZNSt10bad_typeidD1Ev = dso_local unnamed_addr alias void (ptr), ptr @_ZNSt10bad_typeidD2Ev

; Function Attrs: mustprogress nofree norecurse nosync nounwind willreturn memory(none) uwtable
define dso_local void @_ZNSt9type_infoD2Ev(ptr nonnull readnone align 8 captures(none) %0) unnamed_addr #0 align 2 {
  ret void
}

; Function Attrs: mustprogress nounwind uwtable
define dso_local void @_ZNSt9type_infoD0Ev(ptr noundef nonnull align 8 dereferenceable(16) %0) unnamed_addr #1 align 2 {
  tail call void @_ZdlPvm(ptr noundef nonnull %0, i64 noundef 16) #5
  ret void
}

; Function Attrs: nobuiltin nounwind
declare void @_ZdlPvm(ptr noundef, i64 noundef) local_unnamed_addr #2

; Function Attrs: mustprogress nofree norecurse nosync nounwind willreturn memory(argmem: write) uwtable
define dso_local void @_ZNSt8bad_castC2Ev(ptr noundef nonnull writeonly align 8 captures(none) dereferenceable(8) initializes((0, 8)) %0) unnamed_addr #3 align 2 {
  store ptr getelementptr inbounds nuw inrange(-16, 24) (i8, ptr @_ZTVSt8bad_cast, i64 16), ptr %0, align 8, !tbaa !4
  ret void
}

; Function Attrs: nounwind
declare void @_ZNSt9exceptionD2Ev(ptr noundef nonnull align 8 dereferenceable(8)) unnamed_addr #4

; Function Attrs: mustprogress nounwind uwtable
define dso_local void @_ZNSt8bad_castD2Ev(ptr noundef nonnull align 8 dereferenceable(8) %0) unnamed_addr #1 align 2 {
  tail call void @_ZNSt9exceptionD2Ev(ptr noundef nonnull align 8 dereferenceable(8) %0) #6
  ret void
}

; Function Attrs: mustprogress nounwind uwtable
define dso_local void @_ZNSt8bad_castD0Ev(ptr noundef nonnull align 8 dereferenceable(8) %0) unnamed_addr #1 align 2 {
  tail call void @_ZNSt9exceptionD2Ev(ptr noundef nonnull align 8 dereferenceable(8) %0) #6
  tail call void @_ZdlPvm(ptr noundef nonnull %0, i64 noundef 8) #5
  ret void
}

; Function Attrs: mustprogress nofree norecurse nosync nounwind willreturn memory(none) uwtable
define dso_local noundef nonnull ptr @_ZNKSt8bad_cast4whatEv(ptr nonnull readnone align 8 captures(none) %0) unnamed_addr #0 align 2 {
  ret ptr @.str
}

; Function Attrs: mustprogress nofree norecurse nosync nounwind willreturn memory(argmem: write) uwtable
define dso_local void @_ZNSt10bad_typeidC2Ev(ptr noundef nonnull writeonly align 8 captures(none) dereferenceable(8) initializes((0, 8)) %0) unnamed_addr #3 align 2 {
  store ptr getelementptr inbounds nuw inrange(-16, 24) (i8, ptr @_ZTVSt10bad_typeid, i64 16), ptr %0, align 8, !tbaa !4
  ret void
}

; Function Attrs: mustprogress nounwind uwtable
define dso_local void @_ZNSt10bad_typeidD2Ev(ptr noundef nonnull align 8 dereferenceable(8) %0) unnamed_addr #1 align 2 {
  tail call void @_ZNSt9exceptionD2Ev(ptr noundef nonnull align 8 dereferenceable(8) %0) #6
  ret void
}

; Function Attrs: mustprogress nounwind uwtable
define dso_local void @_ZNSt10bad_typeidD0Ev(ptr noundef nonnull align 8 dereferenceable(8) %0) unnamed_addr #1 align 2 {
  tail call void @_ZNSt9exceptionD2Ev(ptr noundef nonnull align 8 dereferenceable(8) %0) #6
  tail call void @_ZdlPvm(ptr noundef nonnull %0, i64 noundef 8) #5
  ret void
}

; Function Attrs: mustprogress nofree norecurse nosync nounwind willreturn memory(none) uwtable
define dso_local noundef nonnull ptr @_ZNKSt10bad_typeid4whatEv(ptr nonnull readnone align 8 captures(none) %0) unnamed_addr #0 align 2 {
  ret ptr @.str.1
}


!llvm.linker.options = !{}
!llvm.module.flags = !{!0, !1, !2, !3}

!0 = !{i32 1, !"wchar_size", i32 4}
!1 = !{i32 8, !"PIC Level", i32 2}
!2 = !{i32 7, !"PIE Level", i32 2}
!3 = !{i32 7, !"uwtable", i32 2}
!4 = !{!5, !5, i64 0}
!5 = !{!"vtable pointer", !6, i64 0}
!6 = !{!"Simple C++ TBAA"}
